; ModuleID = 'source-C-CXX/48/646.cpp'
source_filename = "source-C-CXX/48/646.cpp"
target datalayout = "e-m:e-p270:32:32-p271:32:32-p272:64:64-i64:64-f80:128-n8:16:32:64-S128"
target triple = "x86_64-pc-linux-gnu"

%"class.std::ios_base::Init" = type { i8 }
%"class.std::basic_istream" = type { i32 (...)**, i64, %"class.std::basic_ios" }
%"class.std::basic_ios" = type { %"class.std::ios_base", %"class.std::basic_ostream"*, i8, i8, %"class.std::basic_streambuf"*, %"class.std::ctype"*, %"class.std::num_put"*, %"class.std::num_get"* }
%"class.std::ios_base" = type { i32 (...)**, i64, i64, i32, i32, i32, %"struct.std::ios_base::_Callback_list"*, %"struct.std::ios_base::_Words", [8 x %"struct.std::ios_base::_Words"], i32, %"struct.std::ios_base::_Words"*, %"class.std::locale" }
%"struct.std::ios_base::_Callback_list" = type { %"struct.std::ios_base::_Callback_list"*, void (i32, %"class.std::ios_base"*, i32)*, i32, i32 }
%"struct.std::ios_base::_Words" = type { i8*, i64 }
%"class.std::locale" = type { %"class.std::locale::_Impl"* }
%"class.std::locale::_Impl" = type { i32, %"class.std::locale::facet"**, i64, %"class.std::locale::facet"**, i8** }
%"class.std::locale::facet" = type <{ i32 (...)**, i32, [4 x i8] }>
%"class.std::basic_ostream" = type { i32 (...)**, %"class.std::basic_ios" }
%"class.std::basic_streambuf" = type { i32 (...)**, i8*, i8*, i8*, i8*, i8*, i8*, %"class.std::locale" }
%"class.std::ctype" = type <{ %"class.std::locale::facet.base", [4 x i8], %struct.__locale_struct*, i8, [7 x i8], i32*, i32*, i16*, i8, [256 x i8], [256 x i8], i8, [6 x i8] }>
%"class.std::locale::facet.base" = type <{ i32 (...)**, i32 }>
%struct.__locale_struct = type { [13 x %struct.__locale_data*], i16*, i32*, i32*, [13 x i8*] }
%struct.__locale_data = type opaque
%"class.std::num_put" = type { %"class.std::locale::facet.base", [4 x i8] }
%"class.std::num_get" = type { %"class.std::locale::facet.base", [4 x i8] }

@_ZStL8__ioinit = internal global %"class.std::ios_base::Init" zeroinitializer, align 1
@__dso_handle = external hidden global i8
@_ZSt3cin = external global %"class.std::basic_istream", align 8
@_ZSt4cout = external global %"class.std::basic_ostream", align 8
@llvm.global_ctors = appending global [1 x { i32, void ()*, i8* }] [{ i32, void ()*, i8* } { i32 65535, void ()* @_GLOBAL__sub_I_646.cpp, i8* null }]

declare void @_ZNSt8ios_base4InitC1Ev(%"class.std::ios_base::Init"* nonnull align 1 dereferenceable(1)) unnamed_addr #0

; Function Attrs: nounwind
declare void @_ZNSt8ios_base4InitD1Ev(%"class.std::ios_base::Init"* nonnull align 1 dereferenceable(1)) unnamed_addr #1

; Function Attrs: nofree nounwind
declare i32 @__cxa_atexit(void (i8*)*, i8*, i8*) local_unnamed_addr #2

; Function Attrs: mustprogress norecurse sspstrong uwtable
define dso_local i32 @main() local_unnamed_addr #3 {
  %1 = alloca i8, align 1
  %2 = alloca [500 x i8], align 16
  %3 = getelementptr inbounds [500 x i8], [500 x i8]* %2, i64 0, i64 0
  call void @llvm.lifetime.start.p0i8(i64 500, i8* nonnull %3) #7
  call void @_ZSt17__istream_extractRSiPcl(%"class.std::basic_istream"* nonnull align 8 dereferenceable(16) @_ZSt3cin, i8* nonnull %3, i64 500)
  br label %4

4:                                                ; preds = %144, %0
  %5 = phi i64 [ 0, %0 ], [ %145, %144 ]
  %6 = getelementptr inbounds [500 x i8], [500 x i8]* %2, i64 0, i64 %5
  %7 = load i8, i8* %6, align 1, !tbaa !5
  %8 = icmp eq i8 %7, 0
  br i1 %8, label %14, label %9

9:                                                ; preds = %4
  %10 = add nuw nsw i64 %5, 1
  %11 = getelementptr inbounds [500 x i8], [500 x i8]* %2, i64 0, i64 %10
  %12 = load i8, i8* %11, align 1, !tbaa !5
  %13 = icmp eq i8 %12, 0
  br i1 %13, label %14, label %129

14:                                               ; preds = %139, %134, %129, %9, %4
  %15 = phi i64 [ %5, %4 ], [ %10, %9 ], [ %130, %129 ], [ %135, %134 ], [ %140, %139 ]
  %16 = trunc i64 %15 to i32
  %17 = add nsw i32 %16, -1
  %18 = icmp sgt i32 %16, 2
  br i1 %18, label %19, label %40

19:                                               ; preds = %144, %14
  %20 = phi i32 [ %17, %14 ], [ 499, %144 ]
  %21 = phi i64 [ %15, %14 ], [ 500, %144 ]
  %22 = and i64 %21, 4294967295
  %23 = zext i32 %20 to i64
  br label %24

24:                                               ; preds = %19, %44
  %25 = phi i32 [ 0, %19 ], [ %49, %44 ]
  %26 = phi i64 [ 1, %19 ], [ %45, %44 ]
  %27 = phi i64 [ 2, %19 ], [ %46, %44 ]
  %28 = phi i32 [ %20, %19 ], [ %47, %44 ]
  %29 = add i32 %25, 1
  %30 = lshr i32 %29, 1
  %31 = add nuw i32 %30, 1
  %32 = zext i32 %31 to i64
  %33 = icmp ult i64 %26, %22
  br i1 %33, label %34, label %44

34:                                               ; preds = %24
  %35 = zext i32 %28 to i64
  %36 = and i64 %32, 1
  %37 = icmp ult i32 %29, 2
  %38 = and i64 %32, 4294967294
  %39 = icmp eq i64 %36, 0
  br label %41

40:                                               ; preds = %44, %14
  call void @llvm.lifetime.end.p0i8(i64 500, i8* nonnull %3) #7
  ret i32 0

41:                                               ; preds = %34, %126
  %42 = phi i64 [ 0, %34 ], [ %127, %126 ]
  %43 = add nuw nsw i64 %42, %26
  br i1 %37, label %50, label %66

44:                                               ; preds = %126, %24
  %45 = add nuw nsw i64 %26, 1
  %46 = add nuw nsw i64 %27, 1
  %47 = add nsw i32 %28, -1
  %48 = icmp eq i64 %45, %23
  %49 = add i32 %25, 1
  br i1 %48, label %40, label %24, !llvm.loop !8

50:                                               ; preds = %66, %41
  %51 = phi i32 [ undef, %41 ], [ %86, %66 ]
  %52 = phi i64 [ 0, %41 ], [ %87, %66 ]
  %53 = phi i32 [ 1, %41 ], [ %86, %66 ]
  br i1 %39, label %63, label %54

54:                                               ; preds = %50
  %55 = add nuw nsw i64 %52, %42
  %56 = getelementptr inbounds [500 x i8], [500 x i8]* %2, i64 0, i64 %55
  %57 = load i8, i8* %56, align 1, !tbaa !5
  %58 = sub nsw i64 %43, %52
  %59 = getelementptr inbounds [500 x i8], [500 x i8]* %2, i64 0, i64 %58
  %60 = load i8, i8* %59, align 1, !tbaa !5
  %61 = icmp eq i8 %57, %60
  %62 = select i1 %61, i32 %53, i32 0
  br label %63

63:                                               ; preds = %50, %54
  %64 = phi i32 [ %51, %50 ], [ %62, %54 ]
  %65 = icmp eq i32 %64, 1
  br i1 %65, label %118, label %126

66:                                               ; preds = %41, %66
  %67 = phi i64 [ %87, %66 ], [ 0, %41 ]
  %68 = phi i32 [ %86, %66 ], [ 1, %41 ]
  %69 = phi i64 [ %88, %66 ], [ %38, %41 ]
  %70 = add nuw nsw i64 %67, %42
  %71 = getelementptr inbounds [500 x i8], [500 x i8]* %2, i64 0, i64 %70
  %72 = load i8, i8* %71, align 1, !tbaa !5
  %73 = sub nsw i64 %43, %67
  %74 = getelementptr inbounds [500 x i8], [500 x i8]* %2, i64 0, i64 %73
  %75 = load i8, i8* %74, align 1, !tbaa !5
  %76 = icmp eq i8 %72, %75
  %77 = or i64 %67, 1
  %78 = add nuw nsw i64 %77, %42
  %79 = getelementptr inbounds [500 x i8], [500 x i8]* %2, i64 0, i64 %78
  %80 = load i8, i8* %79, align 1, !tbaa !5
  %81 = sub nsw i64 %43, %77
  %82 = getelementptr inbounds [500 x i8], [500 x i8]* %2, i64 0, i64 %81
  %83 = load i8, i8* %82, align 1, !tbaa !5
  %84 = icmp eq i8 %80, %83
  %85 = select i1 %84, i1 %76, i1 false
  %86 = select i1 %85, i32 %68, i32 0
  %87 = add nuw nsw i64 %67, 2
  %88 = add i64 %69, -2
  %89 = icmp eq i64 %88, 0
  br i1 %89, label %50, label %66, !llvm.loop !10

90:                                               ; preds = %118
  %91 = load i8*, i8** bitcast (%"class.std::basic_ostream"* @_ZSt4cout to i8**), align 8, !tbaa !11
  %92 = getelementptr i8, i8* %91, i64 -24
  %93 = bitcast i8* %92 to i64*
  %94 = load i64, i64* %93, align 8
  %95 = add nsw i64 %94, 240
  %96 = getelementptr inbounds i8, i8* bitcast (%"class.std::basic_ostream"* @_ZSt4cout to i8*), i64 %95
  %97 = bitcast i8* %96 to %"class.std::ctype"**
  %98 = load %"class.std::ctype"*, %"class.std::ctype"** %97, align 8, !tbaa !13
  %99 = icmp eq %"class.std::ctype"* %98, null
  br i1 %99, label %100, label %101

100:                                              ; preds = %90
  call void @_ZSt16__throw_bad_castv() #8
  unreachable

101:                                              ; preds = %90
  %102 = getelementptr inbounds %"class.std::ctype", %"class.std::ctype"* %98, i64 0, i32 8
  %103 = load i8, i8* %102, align 8, !tbaa !17
  %104 = icmp eq i8 %103, 0
  br i1 %104, label %108, label %105

105:                                              ; preds = %101
  %106 = getelementptr inbounds %"class.std::ctype", %"class.std::ctype"* %98, i64 0, i32 9, i64 10
  %107 = load i8, i8* %106, align 1, !tbaa !5
  br label %114

108:                                              ; preds = %101
  call void @_ZNKSt5ctypeIcE13_M_widen_initEv(%"class.std::ctype"* nonnull align 8 dereferenceable(570) %98)
  %109 = bitcast %"class.std::ctype"* %98 to i8 (%"class.std::ctype"*, i8)***
  %110 = load i8 (%"class.std::ctype"*, i8)**, i8 (%"class.std::ctype"*, i8)*** %109, align 8, !tbaa !11
  %111 = getelementptr inbounds i8 (%"class.std::ctype"*, i8)*, i8 (%"class.std::ctype"*, i8)** %110, i64 6
  %112 = load i8 (%"class.std::ctype"*, i8)*, i8 (%"class.std::ctype"*, i8)** %111, align 8
  %113 = call signext i8 %112(%"class.std::ctype"* nonnull align 8 dereferenceable(570) %98, i8 signext 10)
  br label %114

114:                                              ; preds = %105, %108
  %115 = phi i8 [ %107, %105 ], [ %113, %108 ]
  %116 = call nonnull align 8 dereferenceable(8) %"class.std::basic_ostream"* @_ZNSo3putEc(%"class.std::basic_ostream"* nonnull align 8 dereferenceable(8) @_ZSt4cout, i8 signext %115)
  %117 = call nonnull align 8 dereferenceable(8) %"class.std::basic_ostream"* @_ZNSo5flushEv(%"class.std::basic_ostream"* nonnull align 8 dereferenceable(8) %116)
  br label %126

118:                                              ; preds = %63, %118
  %119 = phi i64 [ %124, %118 ], [ 0, %63 ]
  %120 = add nuw nsw i64 %119, %42
  %121 = getelementptr inbounds [500 x i8], [500 x i8]* %2, i64 0, i64 %120
  %122 = load i8, i8* %121, align 1, !tbaa !5
  call void @llvm.lifetime.start.p0i8(i64 1, i8* nonnull %1)
  store i8 %122, i8* %1, align 1, !tbaa !5
  %123 = call nonnull align 8 dereferenceable(8) %"class.std::basic_ostream"* @_ZSt16__ostream_insertIcSt11char_traitsIcEERSt13basic_ostreamIT_T0_ES6_PKS3_l(%"class.std::basic_ostream"* nonnull align 8 dereferenceable(8) @_ZSt4cout, i8* nonnull %1, i64 1)
  call void @llvm.lifetime.end.p0i8(i64 1, i8* nonnull %1)
  %124 = add nuw nsw i64 %119, 1
  %125 = icmp eq i64 %124, %27
  br i1 %125, label %90, label %118, !llvm.loop !19

126:                                              ; preds = %114, %63
  %127 = add nuw nsw i64 %42, 1
  %128 = icmp eq i64 %127, %35
  br i1 %128, label %44, label %41, !llvm.loop !20

129:                                              ; preds = %9
  %130 = add nuw nsw i64 %5, 2
  %131 = getelementptr inbounds [500 x i8], [500 x i8]* %2, i64 0, i64 %130
  %132 = load i8, i8* %131, align 1, !tbaa !5
  %133 = icmp eq i8 %132, 0
  br i1 %133, label %14, label %134

134:                                              ; preds = %129
  %135 = add nuw nsw i64 %5, 3
  %136 = getelementptr inbounds [500 x i8], [500 x i8]* %2, i64 0, i64 %135
  %137 = load i8, i8* %136, align 1, !tbaa !5
  %138 = icmp eq i8 %137, 0
  br i1 %138, label %14, label %139

139:                                              ; preds = %134
  %140 = add nuw nsw i64 %5, 4
  %141 = getelementptr inbounds [500 x i8], [500 x i8]* %2, i64 0, i64 %140
  %142 = load i8, i8* %141, align 1, !tbaa !5
  %143 = icmp eq i8 %142, 0
  br i1 %143, label %14, label %144

144:                                              ; preds = %139
  %145 = add nuw nsw i64 %5, 5
  %146 = icmp eq i64 %145, 500
  br i1 %146, label %19, label %4, !llvm.loop !21
}

; Function Attrs: argmemonly mustprogress nofree nosync nounwind willreturn
declare void @llvm.lifetime.start.p0i8(i64 immarg, i8* nocapture) #4

; Function Attrs: argmemonly mustprogress nofree nosync nounwind willreturn
declare void @llvm.lifetime.end.p0i8(i64 immarg, i8* nocapture) #4

declare void @_ZSt17__istream_extractRSiPcl(%"class.std::basic_istream"* nonnull align 8 dereferenceable(16), i8*, i64) local_unnamed_addr #0

declare nonnull align 8 dereferenceable(8) %"class.std::basic_ostream"* @_ZSt16__ostream_insertIcSt11char_traitsIcEERSt13basic_ostreamIT_T0_ES6_PKS3_l(%"class.std::basic_ostream"* nonnull align 8 dereferenceable(8), i8*, i64) local_unnamed_addr #0

declare nonnull align 8 dereferenceable(8) %"class.std::basic_ostream"* @_ZNSo3putEc(%"class.std::basic_ostream"* nonnull align 8 dereferenceable(8), i8 signext) local_unnamed_addr #0

declare nonnull align 8 dereferenceable(8) %"class.std::basic_ostream"* @_ZNSo5flushEv(%"class.std::basic_ostream"* nonnull align 8 dereferenceable(8)) local_unnamed_addr #0

; Function Attrs: noreturn
declare void @_ZSt16__throw_bad_castv() local_unnamed_addr #5

declare void @_ZNKSt5ctypeIcE13_M_widen_initEv(%"class.std::ctype"* nonnull align 8 dereferenceable(570)) local_unnamed_addr #0

; Function Attrs: sspstrong uwtable
define internal void @_GLOBAL__sub_I_646.cpp() #6 section ".text.startup" {
  tail call void @_ZNSt8ios_base4InitC1Ev(%"class.std::ios_base::Init"* nonnull align 1 dereferenceable(1) @_ZStL8__ioinit)
  %1 = tail call i32 @__cxa_atexit(void (i8*)* bitcast (void (%"class.std::ios_base::Init"*)* @_ZNSt8ios_base4InitD1Ev to void (i8*)*), i8* getelementptr inbounds (%"class.std::ios_base::Init", %"class.std::ios_base::Init"* @_ZStL8__ioinit, i64 0, i32 0), i8* nonnull @__dso_handle) #7
  ret void
}


!llvm.module.flags = !{!0, !1, !2, !3}
!llvm.ident = !{!4}

!0 = !{i32 1, !"wchar_size", i32 4}
!1 = !{i32 7, !"PIC Level", i32 2}
!2 = !{i32 7, !"PIE Level", i32 2}
!3 = !{i32 7, !"uwtable", i32 1}
!4 = !{!"clang version 13.0.0"}
!5 = !{!6, !6, i64 0}
!6 = !{!"omnipotent char", !7, i64 0}
!7 = !{!"Simple C++ TBAA"}
!8 = distinct !{!8, !9}
!9 = !{!"llvm.loop.mustprogress"}
!10 = distinct !{!10, !9}
!11 = !{!12, !12, i64 0}
!12 = !{!"vtable pointer", !7, i64 0}
!13 = !{!14, !15, i64 240}
!14 = !{!"_ZTSSt9basic_iosIcSt11char_traitsIcEE", !15, i64 216, !6, i64 224, !16, i64 225, !15, i64 232, !15, i64 240, !15, i64 248, !15, i64 256}
!15 = !{!"any pointer", !6, i64 0}
!16 = !{!"bool", !6, i64 0}
!17 = !{!18, !6, i64 56}
!18 = !{!"_ZTSSt5ctypeIcE", !15, i64 16, !16, i64 24, !15, i64 32, !15, i64 40, !15, i64 48, !6, i64 56, !6, i64 57, !6, i64 313, !6, i64 569}
!19 = distinct !{!19, !9}
!20 = distinct !{!20, !9}
!21 = distinct !{!21, !9}
